; Function Attrs: nounwind uwtable
define hidden void @zim_XMLReader_read(ptr nocapture noundef readonly %0, ptr nocapture noundef writeonly %1) #0 {
  %3 = getelementptr inbounds i8, ptr %0, i64 44
  %4 = load i32, ptr %3, align 4
  %.not = icmp eq i32 %4, 0
  br i1 %.not, label %.critedge, label %5

5:                                                ; preds = %2
  tail call void @zend_wrong_parameters_none_error() #11
  %6 = load ptr, ptr getelementptr inbounds (%struct._zend_executor_globals, ptr @executor_globals, i64 0, i32 50), align 8
  %7 = icmp ne ptr %6, null
  tail call void @llvm.assume(i1 %7)
  br label %23

.critedge:                                        ; preds = %2
  %8 = getelementptr inbounds i8, ptr %0, i64 32
  %9 = load ptr, ptr %8, align 8
  %10 = getelementptr inbounds i8, ptr %9, i64 -32
  %11 = load ptr, ptr %10, align 8
  %.not9 = icmp eq ptr %11, null
  br i1 %.not9, label %12, label %15

12:                                               ; preds = %.critedge
  tail call void (ptr, ptr, ...) @zend_throw_error(ptr noundef null, ptr noundef nonnull @.str.13) #11
  %13 = load ptr, ptr getelementptr inbounds (%struct._zend_executor_globals, ptr @executor_globals, i64 0, i32 50), align 8
  %14 = icmp ne ptr %13, null
  tail call void @llvm.assume(i1 %14)
  br label %23

15:                                               ; preds = %.critedge
  %16 = tail call i32 @xmlTextReaderRead(ptr noundef nonnull %11) #11
  %17 = icmp eq i32 %16, -1
  br i1 %17, label %18, label %20

18:                                               ; preds = %15
  %19 = getelementptr inbounds i8, ptr %1, i64 8
  store i32 2, ptr %19, align 8
  br label %23

20:                                               ; preds = %15
  %.not10 = icmp eq i32 %16, 0
  %21 = select i1 %.not10, i32 2, i32 3
  %22 = getelementptr inbounds i8, ptr %1, i64 8
  store i32 %21, ptr %22, align 8
  br label %23

23:                                               ; preds = %20, %18, %12, %5
  ret void
}